(lp0
V/movies/?id=fast7.htm
p1
aV/movies/?id=starwars3.htm
p2
aV/movies/?id=narnia.htm
p3
aV/movies/?id=harrypotter4.htm
p4
aV/movies/?id=waroftheworlds.htm
p5
aV/movies/?id=kingkong05.htm
p6
aV/movies/?id=weddingcrashers.htm
p7
aV/movies/?id=charliechocolate.htm
p8
aV/movies/?id=batmanbegins.htm
p9
aV/movies/?id=madagascar.htm
p10
aV/movies/?id=mrandmrssmith.htm
p11
aV/movies/?id=hitch.htm
p12
aV/movies/?id=longestyard05.htm
p13
aV/movies/?id=fantasticfour.htm
p14
aV/movies/?id=chickenlittle.htm
p15
aV/movies/?id=robots.htm
p16
aV/movies/?id=walktheline.htm
p17
aV/movies/?id=pacifier.htm
p18
aV/movies/?id=funwithdickandjane.htm
p19
aV/movies/?id=40yearoldvirgin.htm
p20
aV/movies/?id=flightplan.htm
p21
aV/movies/?id=saw2.htm
p22
aV/movies/?id=brokebackmountain.htm
p23
aV/movies/?id=monsterinlaw.htm
p24
aV/movies/?id=arewethereyet.htm
p25
aV/movies/?id=cheaperbythedozen2.htm
p26
aV/movies/?id=dukesofhazzard.htm
p27
aV/movies/?id=marchofthepenguins.htm
p28
aV/movies/?id=ring2.htm
p29
aV/movies/?id=constantine.htm
p30
aV/movies/?id=exorcismofemilyrose.htm
p31
aV/movies/?id=fourbrothers.htm
p32
aV/movies/?id=sincity.htm
p33
aV/movies/?id=interpreter.htm
p34
aV/movies/?id=guesswho.htm
p35
aV/movies/?id=sahara.htm
p36
aV/movies/?id=coachcarter.htm
p37
aV/movies/?id=herbie05.htm
p38
aV/movies/?id=amityvillehorror05.htm
p39
aV/movies/?id=skyhigh.htm
p40
aV/movies/?id=bewitched.htm
p41
aV/movies/?id=jarhead.htm
p42
aV/movies/?id=cinderellaman.htm
p43
aV/movies/?id=familystone.htm
p44
aV/movies/?id=redeye.htm
p45
aV/movies/?id=memoirsofageisha.htm
p46
aV/movies/?id=whitenoise.htm
p47
aV/movies/?id=wallaceandgromit05.htm
p48
aV/movies/?id=becool.htm
p49
aV/movies/?id=crash05.htm
p50
aV/movies/?id=yoursmineandours.htm
p51
aV/movies/?id=corpsebride.htm
p52
aV/movies/?id=kickingandscreaming.htm
p53
aV/movies/?id=hoodwinked.htm
p54
aV/movies/?id=hideandseek.htm
p55
aV/movies/?id=hitchhikersguide.htm
p56
aV/movies/?id=syriana.htm
p57
aV/movies/?id=diaryofamadblackwoman.htm
p58
aV/movies/?id=racingstripes.htm
p59
aV/movies/?id=misscongeniality2.htm
p60
aV/movies/?id=justlikeheaven.htm
p61
aV/movies/?id=skeletonkey.htm
p62
aV/movies/?id=munich.htm
p63
aV/movies/?id=kingdomofheaven.htm
p64
aV/movies/?id=boogeyman.htm
p65
aV/movies/?id=zorro2.htm
p66
aV/movies/?id=mustlovedogs.htm
p67
aV/movies/?id=transporter2.htm
p68
aV/movies/?id=rumorhasit.htm
p69
aV/movies/?id=feverpitch.htm
p70
aV/movies/?id=sharkboyandlavagirl.htm
p71
aV/movies/?id=travelingpants.htm
p72
aV/movies/?id=prideandprejudice05.htm
p73
aV/movies/?id=brothersgrimm.htm
p74
aV/movies/?id=beautyshop.htm
p75
aV/movies/?id=derailed.htm
p76
aV/movies/?id=island05.htm
p77
aV/movies/?id=ringer.htm
p78
aV/movies/?id=hostage.htm
p79
aV/movies/?id=magnificentdesolationimax.htm
p80
aV/movies/?id=constantgardener.htm
p81
aV/movies/?id=inhershoes.htm
p82
aV/movies/?id=badnewsbears05.htm
p83
aV/movies/?id=dreamer.htm
p84
aV/movies/?id=winndixie.htm
p85
aV/movies/?id=justfriends.htm
p86
aV/movies/?id=stealth.htm
p87
aV/movies/?id=houseofwax.htm
p88
aV/movies/?id=weddingdate.htm
p89
aV/movies/?id=goodnightandgoodluck.htm
p90
aV/movies/?id=historyofviolence.htm
p91
aV/movies/?id=getrichordietryin.htm
p92
aV/movies/?id=fog05.htm
p93
aV/movies/?id=zathura.htm
p94
aV/movies/?id=rent.htm
p95
aV/movies/?id=capote.htm
p96
aV/movies/?id=doom.htm
p97
aV/movies/?id=xxx2.htm
p98
aV/movies/?id=elizabethtown.htm
p99
aV/movies/?id=aeonflux.htm
p100
aV/movies/?id=serenity.htm
p101
a.